; ModuleID = '43/909.c'
source_filename = "43/909.c"
target datalayout = "e-m:e-p270:32:32-p271:32:32-p272:64:64-i64:64-f80:128-n8:16:32:64-S128"
target triple = "x86_64-pc-linux-gnu"

@.str = private unnamed_addr constant [3 x i8] c"%d\00", align 1
@.str.1 = private unnamed_addr constant [7 x i8] c"%d %d\0A\00", align 1

; Function Attrs: noinline nounwind uwtable
define dso_local i32 @main() #0 {
  %1 = alloca i32, align 4
  %2 = alloca i32, align 4
  %3 = alloca i32, align 4
  %4 = alloca i32, align 4
  %5 = alloca i32, align 4
  %6 = alloca i32, align 4
  %7 = alloca i32, align 4
  %8 = alloca i32, align 4
  store i32 0, i32* %1, align 4
  %9 = call i32 (i8*, ...) @__isoc99_scanf(i8* getelementptr inbounds ([3 x i8], [3 x i8]* @.str, i64 0, i64 0), i32* %2)
  store i32 3, i32* %3, align 4
  br label %10

10:                                               ; preds = %88, %0
  %11 = load i32, i32* %3, align 4
  %12 = load i32, i32* %2, align 4
  %13 = sdiv i32 %12, 2
  %14 = icmp sle i32 %11, %13
  br i1 %14, label %15, label %93

15:                                               ; preds = %10
  %16 = load i32, i32* %3, align 4
  %17 = sitofp i32 %16 to double
  %18 = fmul double %17, 1.000000e+00
  %19 = call double @sqrt(double %18) #3
  %20 = fptosi double %19 to i32
  store i32 %20, i32* %5, align 4
  store i32 3, i32* %7, align 4
  br label %21

21:                                               ; preds = %32, %15
  %22 = load i32, i32* %7, align 4
  %23 = load i32, i32* %5, align 4
  %24 = icmp sle i32 %22, %23
  br i1 %24, label %25, label %37

25:                                               ; preds = %21
  %26 = load i32, i32* %3, align 4
  %27 = load i32, i32* %7, align 4
  %28 = srem i32 %26, %27
  %29 = icmp eq i32 %28, 0
  br i1 %29, label %30, label %31

30:                                               ; preds = %25
  br label %37

31:                                               ; preds = %25
  br label %32

32:                                               ; preds = %31
  %33 = load i32, i32* %7, align 4
  %34 = add nsw i32 %33, 1
  store i32 %34, i32* %7, align 4
  %35 = load i32, i32* %7, align 4
  %36 = add nsw i32 %35, 1
  store i32 %36, i32* %7, align 4
  br label %21

37:                                               ; preds = %30, %21
  %38 = load i32, i32* %7, align 4
  %39 = load i32, i32* %5, align 4
  %40 = icmp sgt i32 %38, %39
  br i1 %40, label %47, label %41

41:                                               ; preds = %37
  %42 = load i32, i32* %3, align 4
  %43 = icmp eq i32 %42, 3
  br i1 %43, label %47, label %44

44:                                               ; preds = %41
  %45 = load i32, i32* %3, align 4
  %46 = icmp eq i32 %45, 5
  br i1 %46, label %47, label %87

47:                                               ; preds = %44, %41, %37
  %48 = load i32, i32* %2, align 4
  %49 = load i32, i32* %3, align 4
  %50 = sub nsw i32 %48, %49
  store i32 %50, i32* %4, align 4
  %51 = load i32, i32* %4, align 4
  %52 = sitofp i32 %51 to double
  %53 = fmul double %52, 1.000000e+00
  %54 = call double @sqrt(double %53) #3
  %55 = fptosi double %54 to i32
  store i32 %55, i32* %6, align 4
  store i32 3, i32* %8, align 4
  br label %56

56:                                               ; preds = %67, %47
  %57 = load i32, i32* %8, align 4
  %58 = load i32, i32* %6, align 4
  %59 = icmp sle i32 %57, %58
  br i1 %59, label %60, label %72

60:                                               ; preds = %56
  %61 = load i32, i32* %4, align 4
  %62 = load i32, i32* %8, align 4
  %63 = srem i32 %61, %62
  %64 = icmp eq i32 %63, 0
  br i1 %64, label %65, label %66

65:                                               ; preds = %60
  br label %72

66:                                               ; preds = %60
  br label %67

67:                                               ; preds = %66
  %68 = load i32, i32* %8, align 4
  %69 = add nsw i32 %68, 1
  store i32 %69, i32* %8, align 4
  %70 = load i32, i32* %8, align 4
  %71 = add nsw i32 %70, 1
  store i32 %71, i32* %8, align 4
  br label %56

72:                                               ; preds = %65, %56
  %73 = load i32, i32* %8, align 4
  %74 = load i32, i32* %6, align 4
  %75 = icmp sgt i32 %73, %74
  br i1 %75, label %82, label %76

76:                                               ; preds = %72
  %77 = load i32, i32* %4, align 4
  %78 = icmp eq i32 %77, 3
  br i1 %78, label %82, label %79

79:                                               ; preds = %76
  %80 = load i32, i32* %4, align 4
  %81 = icmp eq i32 %80, 5
  br i1 %81, label %82, label %86

82:                                               ; preds = %79, %76, %72
  %83 = load i32, i32* %3, align 4
  %84 = load i32, i32* %4, align 4
  %85 = call i32 (i8*, ...) @printf(i8* getelementptr inbounds ([7 x i8], [7 x i8]* @.str.1, i64 0, i64 0), i32 %83, i32 %84)
  br label %86

86:                                               ; preds = %82, %79
  br label %87

87:                                               ; preds = %86, %44
  br label %88

88:                                               ; preds = %87
  %89 = load i32, i32* %3, align 4
  %90 = add nsw i32 %89, 1
  store i32 %90, i32* %3, align 4
  %91 = load i32, i32* %3, align 4
  %92 = add nsw i32 %91, 1
  store i32 %92, i32* %3, align 4
  br label %10

93:                                               ; preds = %10
  %94 = load i32, i32* %1, align 4
  ret i32 %94
}

declare dso_local i32 @__isoc99_scanf(i8*, ...) #1

; Function Attrs: nounwind
declare dso_local double @sqrt(double) #2

declare dso_local i32 @printf(i8*, ...) #1


!llvm.module.flags = !{!0}
!llvm.ident = !{!1}

!0 = !{i32 1, !"wchar_size", i32 4}
!1 = !{!"clang version 10.0.0-4ubuntu1 "}
